target datalayout = "e-m:e-p270:32:32-p271:32:32-p272:64:64-i64:64-i128:128-f80:128-n8:16:32:64-S128"
target triple = "x86_64-pc-linux-gnu"

%struct.pointf_s = type { double, double }

; Function Attrs: nounwind uwtable
define internal i32 @raySeg(double %0, double %1, double %2, double %3, double %4, double %5, double %6, double %7) #0 {
  %9 = alloca i32, align 4
  %10 = alloca %struct.pointf_s, align 8
  %11 = alloca %struct.pointf_s, align 8
  %12 = alloca %struct.pointf_s, align 8
  %13 = alloca %struct.pointf_s, align 8
  %14 = alloca i32, align 4
  %15 = alloca i32, align 4
  %16 = alloca i32, align 4
  %17 = getelementptr inbounds nuw { double, double }, ptr %10, i32 0, i32 0
  store double %0, ptr %17, align 8
  %18 = getelementptr inbounds nuw { double, double }, ptr %10, i32 0, i32 1
  store double %1, ptr %18, align 8
  %19 = getelementptr inbounds nuw { double, double }, ptr %11, i32 0, i32 0
  store double %2, ptr %19, align 8
  %20 = getelementptr inbounds nuw { double, double }, ptr %11, i32 0, i32 1
  store double %3, ptr %20, align 8
  %21 = getelementptr inbounds nuw { double, double }, ptr %12, i32 0, i32 0
  store double %4, ptr %21, align 8
  %22 = getelementptr inbounds nuw { double, double }, ptr %12, i32 0, i32 1
  store double %5, ptr %22, align 8
  %23 = getelementptr inbounds nuw { double, double }, ptr %13, i32 0, i32 0
  store double %6, ptr %23, align 8
  %24 = getelementptr inbounds nuw { double, double }, ptr %13, i32 0, i32 1
  store double %7, ptr %24, align 8
  call void @llvm.lifetime.start.p0(i64 4, ptr %14) #12
  %25 = getelementptr inbounds nuw { double, double }, ptr %10, i32 0, i32 0
  %26 = load double, ptr %25, align 8
  %27 = getelementptr inbounds nuw { double, double }, ptr %10, i32 0, i32 1
  %28 = load double, ptr %27, align 8
  %29 = getelementptr inbounds nuw { double, double }, ptr %11, i32 0, i32 0
  %30 = load double, ptr %29, align 8
  %31 = getelementptr inbounds nuw { double, double }, ptr %11, i32 0, i32 1
  %32 = load double, ptr %31, align 8
  %33 = getelementptr inbounds nuw { double, double }, ptr %12, i32 0, i32 0
  %34 = load double, ptr %33, align 8
  %35 = getelementptr inbounds nuw { double, double }, ptr %12, i32 0, i32 1
  %36 = load double, ptr %35, align 8
  %37 = call i32 @wind(double %26, double %28, double %30, double %32, double %34, double %36)
  store i32 %37, ptr %14, align 4, !tbaa !33
  call void @llvm.lifetime.start.p0(i64 4, ptr %15) #12
  %38 = getelementptr inbounds nuw { double, double }, ptr %10, i32 0, i32 0
  %39 = load double, ptr %38, align 8
  %40 = getelementptr inbounds nuw { double, double }, ptr %10, i32 0, i32 1
  %41 = load double, ptr %40, align 8
  %42 = getelementptr inbounds nuw { double, double }, ptr %11, i32 0, i32 0
  %43 = load double, ptr %42, align 8
  %44 = getelementptr inbounds nuw { double, double }, ptr %11, i32 0, i32 1
  %45 = load double, ptr %44, align 8
  %46 = getelementptr inbounds nuw { double, double }, ptr %13, i32 0, i32 0
  %47 = load double, ptr %46, align 8
  %48 = getelementptr inbounds nuw { double, double }, ptr %13, i32 0, i32 1
  %49 = load double, ptr %48, align 8
  %50 = call i32 @wind(double %39, double %41, double %43, double %45, double %47, double %49)
  store i32 %50, ptr %15, align 4, !tbaa !33
  %51 = load i32, ptr %14, align 4, !tbaa !33
  %52 = load i32, ptr %15, align 4, !tbaa !33
  %53 = icmp eq i32 %51, %52
  br i1 %53, label %54, label %55

54:                                               ; preds = %8
  store i32 0, ptr %9, align 4
  store i32 1, ptr %16, align 4
  br label %118

55:                                               ; preds = %8
  %56 = load i32, ptr %14, align 4, !tbaa !33
  %57 = icmp eq i32 %56, 0
  br i1 %57, label %58, label %88

58:                                               ; preds = %55
  %59 = getelementptr inbounds nuw { double, double }, ptr %10, i32 0, i32 0
  %60 = load double, ptr %59, align 8
  %61 = getelementptr inbounds nuw { double, double }, ptr %10, i32 0, i32 1
  %62 = load double, ptr %61, align 8
  %63 = getelementptr inbounds nuw { double, double }, ptr %13, i32 0, i32 0
  %64 = load double, ptr %63, align 8
  %65 = getelementptr inbounds nuw { double, double }, ptr %13, i32 0, i32 1
  %66 = load double, ptr %65, align 8
  %67 = getelementptr inbounds nuw { double, double }, ptr %11, i32 0, i32 0
  %68 = load double, ptr %67, align 8
  %69 = getelementptr inbounds nuw { double, double }, ptr %11, i32 0, i32 1
  %70 = load double, ptr %69, align 8
  %71 = call i32 @wind(double %60, double %62, double %64, double %66, double %68, double %70)
  %72 = getelementptr inbounds nuw { double, double }, ptr %10, i32 0, i32 0
  %73 = load double, ptr %72, align 8
  %74 = getelementptr inbounds nuw { double, double }, ptr %10, i32 0, i32 1
  %75 = load double, ptr %74, align 8
  %76 = getelementptr inbounds nuw { double, double }, ptr %13, i32 0, i32 0
  %77 = load double, ptr %76, align 8
  %78 = getelementptr inbounds nuw { double, double }, ptr %13, i32 0, i32 1
  %79 = load double, ptr %78, align 8
  %80 = getelementptr inbounds nuw { double, double }, ptr %12, i32 0, i32 0
  %81 = load double, ptr %80, align 8
  %82 = getelementptr inbounds nuw { double, double }, ptr %12, i32 0, i32 1
  %83 = load double, ptr %82, align 8
  %84 = call i32 @wind(double %73, double %75, double %77, double %79, double %81, double %83)
  %85 = mul nsw i32 %71, %84
  %86 = icmp sge i32 %85, 0
  %87 = zext i1 %86 to i32
  store i32 %87, ptr %9, align 4
  store i32 1, ptr %16, align 4
  br label %118

88:                                               ; preds = %55
  %89 = getelementptr inbounds nuw { double, double }, ptr %10, i32 0, i32 0
  %90 = load double, ptr %89, align 8
  %91 = getelementptr inbounds nuw { double, double }, ptr %10, i32 0, i32 1
  %92 = load double, ptr %91, align 8
  %93 = getelementptr inbounds nuw { double, double }, ptr %12, i32 0, i32 0
  %94 = load double, ptr %93, align 8
  %95 = getelementptr inbounds nuw { double, double }, ptr %12, i32 0, i32 1
  %96 = load double, ptr %95, align 8
  %97 = getelementptr inbounds nuw { double, double }, ptr %11, i32 0, i32 0
  %98 = load double, ptr %97, align 8
  %99 = getelementptr inbounds nuw { double, double }, ptr %11, i32 0, i32 1
  %100 = load double, ptr %99, align 8
  %101 = call i32 @wind(double %90, double %92, double %94, double %96, double %98, double %100)
  %102 = getelementptr inbounds nuw { double, double }, ptr %10, i32 0, i32 0
  %103 = load double, ptr %102, align 8
  %104 = getelementptr inbounds nuw { double, double }, ptr %10, i32 0, i32 1
  %105 = load double, ptr %104, align 8
  %106 = getelementptr inbounds nuw { double, double }, ptr %12, i32 0, i32 0
  %107 = load double, ptr %106, align 8
  %108 = getelementptr inbounds nuw { double, double }, ptr %12, i32 0, i32 1
  %109 = load double, ptr %108, align 8
  %110 = getelementptr inbounds nuw { double, double }, ptr %13, i32 0, i32 0
  %111 = load double, ptr %110, align 8
  %112 = getelementptr inbounds nuw { double, double }, ptr %13, i32 0, i32 1
  %113 = load double, ptr %112, align 8
  %114 = call i32 @wind(double %103, double %105, double %107, double %109, double %111, double %113)
  %115 = mul nsw i32 %101, %114
  %116 = icmp sge i32 %115, 0
  %117 = zext i1 %116 to i32
  store i32 %117, ptr %9, align 4
  store i32 1, ptr %16, align 4
  br label %118

118:                                              ; preds = %88, %58, %54
  call void @llvm.lifetime.end.p0(i64 4, ptr %15) #12
  call void @llvm.lifetime.end.p0(i64 4, ptr %14) #12
  %119 = load i32, ptr %9, align 4
  ret i32 %119
}