; Function Attrs: nounwind uwtable
define internal fastcc range(i32 0, 2) i32 @raySeg(double %0, double %1, double %2, double %3, double %4, double %5, double %6, double %7) unnamed_addr #0 {
  %9 = tail call i32 @wind(double %0, double %1, double %2, double %3, double %4, double %5) #18
  %10 = tail call i32 @wind(double %0, double %1, double %2, double %3, double %6, double %7) #18
  %11 = icmp eq i32 %9, %10
  br i1 %11, label %24, label %12

12:                                               ; preds = %8
  %13 = icmp eq i32 %9, 0
  br i1 %13, label %14, label %19

14:                                               ; preds = %12
  %15 = tail call i32 @wind(double %0, double %1, double %6, double %7, double %2, double %3) #18
  %16 = tail call i32 @wind(double %0, double %1, double %6, double %7, double %4, double %5) #18
  %17 = mul nsw i32 %16, %15
  %18 = icmp sgt i32 %17, -1
  br label %24

19:                                               ; preds = %12
  %20 = tail call i32 @wind(double %0, double %1, double %4, double %5, double %2, double %3) #18
  %21 = tail call i32 @wind(double %0, double %1, double %4, double %5, double %6, double %7) #18
  %22 = mul nsw i32 %21, %20
  %23 = icmp sgt i32 %22, -1
  br label %24

24:                                               ; preds = %8, %19, %14
  %.0.shrunk = phi i1 [ %18, %14 ], [ %23, %19 ], [ false, %8 ]
  %.0 = zext i1 %.0.shrunk to i32
  ret i32 %.0
}